target datalayout = "e-m:e-p270:32:32-p271:32:32-p272:64:64-i64:64-i128:128-f80:128-n8:16:32:64-S128"
target triple = "x86_64-pc-linux-gnu"

@.str.1 = private unnamed_addr constant [39 x i8] c"MPEG-4 description: tag=0x%02x len=%d\0A\00", align 1

; Function Attrs: nounwind uwtable
define i32 @ff_mp4_read_descr_len(ptr noundef %0) #0 {
  %2 = alloca ptr, align 8
  %3 = alloca i32, align 4
  %4 = alloca i32, align 4
  %5 = alloca i32, align 4
  %6 = alloca i32, align 4
  store ptr %0, ptr %2, align 8, !tbaa !16
  call void @llvm.lifetime.start.p0(i64 4, ptr %3) #6
  store i32 0, ptr %3, align 4, !tbaa !9
  call void @llvm.lifetime.start.p0(i64 4, ptr %4) #6
  store i32 4, ptr %4, align 4, !tbaa !9
  br label %7

7:                                                ; preds = %26, %1
  %8 = load i32, ptr %4, align 4, !tbaa !9
  %9 = add nsw i32 %8, -1
  store i32 %9, ptr %4, align 4, !tbaa !9
  %10 = icmp ne i32 %8, 0
  br i1 %10, label %11, label %27

11:                                               ; preds = %7
  call void @llvm.lifetime.start.p0(i64 4, ptr %5) #6
  %12 = load ptr, ptr %2, align 8, !tbaa !16
  %13 = call i32 @avio_r8(ptr noundef %12)
  store i32 %13, ptr %5, align 4, !tbaa !9
  %14 = load i32, ptr %3, align 4, !tbaa !9
  %15 = shl i32 %14, 7
  %16 = load i32, ptr %5, align 4, !tbaa !9
  %17 = and i32 %16, 127
  %18 = or i32 %15, %17
  store i32 %18, ptr %3, align 4, !tbaa !9
  %19 = load i32, ptr %5, align 4, !tbaa !9
  %20 = and i32 %19, 128
  %21 = icmp ne i32 %20, 0
  br i1 %21, label %23, label %22

22:                                               ; preds = %11
  store i32 3, ptr %6, align 4
  br label %24

23:                                               ; preds = %11
  store i32 0, ptr %6, align 4
  br label %24

24:                                               ; preds = %23, %22
  call void @llvm.lifetime.end.p0(i64 4, ptr %5) #6
  %25 = load i32, ptr %6, align 4
  switch i32 %25, label %29 [
    i32 0, label %26
    i32 3, label %27
  ]

26:                                               ; preds = %24
  br label %7, !llvm.loop !18

27:                                               ; preds = %24, %7
  %28 = load i32, ptr %3, align 4, !tbaa !9
  store i32 1, ptr %6, align 4
  call void @llvm.lifetime.end.p0(i64 4, ptr %4) #6
  call void @llvm.lifetime.end.p0(i64 4, ptr %3) #6
  ret i32 %28

29:                                               ; preds = %24
  unreachable
}

; Function Attrs: nounwind uwtable
define i32 @ff_mp4_read_descr(ptr noundef %0, ptr noundef %1, ptr noundef %2) #0 {
  %4 = alloca ptr, align 8
  %5 = alloca ptr, align 8
  %6 = alloca ptr, align 8
  %7 = alloca i32, align 4
  store ptr %0, ptr %4, align 8, !tbaa !19
  store ptr %1, ptr %5, align 8, !tbaa !16
  store ptr %2, ptr %6, align 8, !tbaa !20
  call void @llvm.lifetime.start.p0(i64 4, ptr %7) #6
  %8 = load ptr, ptr %5, align 8, !tbaa !16
  %9 = call i32 @avio_r8(ptr noundef %8)
  %10 = load ptr, ptr %6, align 8, !tbaa !20
  store i32 %9, ptr %10, align 4, !tbaa !9
  %11 = load ptr, ptr %5, align 8, !tbaa !16
  %12 = call i32 @ff_mp4_read_descr_len(ptr noundef %11)
  store i32 %12, ptr %7, align 4, !tbaa !9
  %13 = load ptr, ptr %4, align 8, !tbaa !19
  %14 = load ptr, ptr %6, align 8, !tbaa !20
  %15 = load i32, ptr %14, align 4, !tbaa !9
  %16 = load i32, ptr %7, align 4, !tbaa !9
  call void (ptr, i32, ptr, ...) @av_log(ptr noundef %13, i32 noundef 56, ptr noundef @.str.1, i32 noundef %15, i32 noundef %16)
  %17 = load i32, ptr %7, align 4, !tbaa !9
  call void @llvm.lifetime.end.p0(i64 4, ptr %7) #6
  ret i32 %17
}