; Function Attrs: nounwind uwtable
define noundef i32 @ff_mp4_read_descr(ptr noundef %0, ptr noundef %1, ptr noundef captures(none) initializes((0, 4)) %2) local_unnamed_addr #5 {
  %4 = tail call i32 @avio_r8(ptr noundef %1) #8
  store i32 %4, ptr %2, align 4, !tbaa !11
  br label %5

5:                                                ; preds = %6, %3
  %.07.i = phi i32 [ 4, %3 ], [ %7, %6 ]
  %.06.i = phi i32 [ 0, %3 ], [ %11, %6 ]
  %.not.i = icmp eq i32 %.07.i, 0
  br i1 %.not.i, label %ff_mp4_read_descr_len.exit, label %6

6:                                                ; preds = %5
  %7 = add nsw i32 %.07.i, -1
  %8 = tail call i32 @avio_r8(ptr noundef %1) #8
  %9 = shl i32 %.06.i, 7
  %10 = and i32 %8, 127
  %11 = or disjoint i32 %10, %9
  %12 = and i32 %8, 128
  %.not8.i = icmp eq i32 %12, 0
  br i1 %.not8.i, label %ff_mp4_read_descr_len.exit, label %5

ff_mp4_read_descr_len.exit:                       ; preds = %5, %6
  %.1.i = phi i32 [ %11, %6 ], [ %.06.i, %5 ]
  %13 = load i32, ptr %2, align 4, !tbaa !11
  tail call void (ptr, i32, ptr, ...) @av_log(ptr noundef %0, i32 noundef 56, ptr noundef nonnull @.str.1, i32 noundef %13, i32 noundef %.1.i) #8
  ret i32 %.1.i
}